target datalayout = "e-m:e-p270:32:32-p271:32:32-p272:64:64-i64:64-i128:128-f80:128-n8:16:32:64-S128"
target triple = "x86_64-pc-linux-gnu"

%"class.LIEF::DEX::MapItem" = type <{ %"class.LIEF::Object", i16, i16, i32, i32, [4 x i8] }>
%"class.LIEF::Object" = type { ptr }

@_ZTVN4LIEF3DEX7MapItemE = unnamed_addr constant { [7 x ptr] } { [7 x ptr] [ptr null, ptr @_ZTIN4LIEF3DEX7MapItemE, ptr @_ZNK4LIEF6ObjecteqERKS0_, ptr @_ZNK4LIEF6ObjectneERKS0_, ptr @_ZN4LIEF3DEX7MapItemD1Ev, ptr @_ZN4LIEF3DEX7MapItemD0Ev, ptr @_ZNK4LIEF3DEX7MapItem6acceptERNS_7VisitorE] }, align 8

; Function Attrs: mustprogress nounwind uwtable
define void @_ZN4LIEF3DEX7MapItemC2ENS1_5TYPESEjjt(ptr noundef nonnull align 8 dereferenceable(20) %0, i16 noundef zeroext %1, i32 noundef %2, i32 noundef %3, i16 noundef zeroext %4) unnamed_addr #0 align 2 {
  %6 = alloca ptr, align 8
  %7 = alloca i16, align 2
  %8 = alloca i32, align 4
  %9 = alloca i32, align 4
  %10 = alloca i16, align 2
  store ptr %0, ptr %6, align 8, !tbaa !3
  store i16 %1, ptr %7, align 2, !tbaa !10
  store i32 %2, ptr %8, align 4, !tbaa !12
  store i32 %3, ptr %9, align 4, !tbaa !12
  store i16 %4, ptr %10, align 2, !tbaa !14
  %11 = load ptr, ptr %6, align 8
  call void @_ZN4LIEF6ObjectC2Ev(ptr noundef nonnull align 8 dereferenceable(8) %11)
  store ptr getelementptr inbounds inrange(-16, 40) ({ [7 x ptr] }, ptr @_ZTVN4LIEF3DEX7MapItemE, i32 0, i32 0, i32 2), ptr %11, align 8, !tbaa !8
  %12 = getelementptr inbounds nuw %"class.LIEF::DEX::MapItem", ptr %11, i32 0, i32 1
  %13 = load i16, ptr %7, align 2, !tbaa !10
  store i16 %13, ptr %12, align 8, !tbaa !16
  %14 = getelementptr inbounds nuw %"class.LIEF::DEX::MapItem", ptr %11, i32 0, i32 2
  %15 = load i16, ptr %10, align 2, !tbaa !14
  store i16 %15, ptr %14, align 2, !tbaa !19
  %16 = getelementptr inbounds nuw %"class.LIEF::DEX::MapItem", ptr %11, i32 0, i32 3
  %17 = load i32, ptr %9, align 4, !tbaa !12
  store i32 %17, ptr %16, align 4, !tbaa !20
  %18 = getelementptr inbounds nuw %"class.LIEF::DEX::MapItem", ptr %11, i32 0, i32 4
  %19 = load i32, ptr %8, align 4, !tbaa !12
  store i32 %19, ptr %18, align 8, !tbaa !21
  ret void
}