; Function Attrs: mustprogress nounwind uwtable
define void @_ZN4LIEF3DEX7MapItemC2ENS1_5TYPESEjjt(ptr noundef nonnull align 8 dereferenceable(20) %0, i16 noundef zeroext %1, i32 noundef %2, i32 noundef %3, i16 noundef zeroext %4) unnamed_addr #0 align 2 {
  tail call void @_ZN4LIEF6ObjectC2Ev(ptr noundef nonnull align 8 dereferenceable(8) %0) #7
  store ptr getelementptr inbounds nuw inrange(-16, 40) (i8, ptr @_ZTVN4LIEF3DEX7MapItemE, i64 16), ptr %0, align 8, !tbaa !3
  %6 = getelementptr inbounds nuw i8, ptr %0, i64 8
  store i16 %1, ptr %6, align 8, !tbaa !6
  %7 = getelementptr inbounds nuw i8, ptr %0, i64 10
  store i16 %4, ptr %7, align 2, !tbaa !13
  %8 = getelementptr inbounds nuw i8, ptr %0, i64 12
  store i32 %3, ptr %8, align 4, !tbaa !14
  %9 = getelementptr inbounds nuw i8, ptr %0, i64 16
  store i32 %2, ptr %9, align 8, !tbaa !15
  ret void
}